(lp0
(dp1
S'#'
p2
F0.012757357584943792
sS'%'
p3
F0.00012631047113805733
sS'$'
p4
F0.002147278009346975
sS'&'
p5
F0.008968043450802071
sS'+'
p6
F0.00037893141341417203
sS'*'
p7
F0.0008841732979664014
sS'-'
p8
F0.00012631047113805733
sS';'
p9
F0.00429455601869395
sS'A'
p10
F0.024504231400783123
sS'@'
p11
F0.02147278009346975
sS'C'
p12
F0.006947075912593154
sS'B'
p13
F0.02564102564102564
sS'D'
p14
F0.0060629026146267525
sS'G'
p15
F0.005305039787798408
sS'F'
p16
F0.00012631047113805733
sS'I'
p17
F0.0007578628268283441
sS'H'
p18
F0.014146772767462422
sS'K'
p19
F0.00025262094227611467
sS'M'
p20
F0.0046734874321081215
sS'L'
p21
F0.0017683465959328027
sS'O'
p22
F0.00808387015283567
sS'N'
p23
F0.014652014652014652
sS'Q'
p24
F0.0085891120373879
sS'P'
p25
F0.010104837691044588
sS'S'
p26
F0.007704938739421498
sS'R'
p27
F0.0015157256536566881
sS'U'
p28
F0.0008841732979664014
sS'T'
p29
F0.0022735884804850324
sS'W'
p30
F0.007831249210559556
sS'V'
p31
F0.0008841732979664014
sS'['
p32
F0.00012631047113805733
sS']'
p33
F0.0018946570670708603
sS'a'
p34
F0.06037640520399141
sS'c'
p35
F0.04509283819628647
sS'b'
p36
F0.04534545913856259
sS'e'
p37
F0.05342932929139826
sS'd'
p38
F0.08601743084501705
sS'g'
p39
F0.01856763925729443
sS'f'
p40
F0.053934571175950484
sS'i'
p41
F0.006694454970317039
sS'h'
p42
F0.04673487432108122
sS'k'
p43
F0.002526209422761147
sS'm'
p44
F0.0361247947454844
sS'l'
p45
F0.017304534545913856
sS'o'
p46
F0.06997600101048376
sS'n'
p47
F0.024377920929645067
sS'q'
p48
F0.01818870784388026
sS'p'
p49
F0.054566123531640774
sS's'
p50
F0.04787166856132374
sS'r'
p51
F0.013894151825186309
sS'u'
p52
F0.019830743968675003
sS't'
p53
F0.029177718832891247
sS'w'
p54
F0.00025262094227611467
sS'v'
p55
F0.02374636857395478
sS'y'
p56
F0.0010104837691044587
sS'x'
p57
F0.01907288114184666
sa(dp58
g2
F0.002883031301482702
sS'E'
p59
F0.003500823723228995
sg17
F0.00020593080724876442
sg22
F0.0006177924217462932
sg23
F0.00041186161449752884
sg27
F0.003912685337726524
sg29
F0.00041186161449752884
sg30
F0.0006177924217462932
sS'X'
p60
F0.00041186161449752884
sS'_'
p61
F0.0008237232289950577
sg34
F0.13097199341021418
sg35
F0.023887973640856673
sg36
F0.007413509060955519
sg37
F0.1289126853377265
sg38
F0.03747940691927512
sg39
F0.004118616144975288
sg40
F0.0055601317957166396
sg41
F0.08299011532125206
sg42
F0.010090609555189456
sg43
F0.00020593080724876442
sg44
F0.00514827018121911
sg45
F0.022652388797364087
sg46
F0.18945634266886327
sg47
F0.04139209225700165
sg48
F0.001029654036243822
sg49
F0.006383855024711697
sg50
F0.009678747940691927
sg51
F0.0335667215815486
sg52
F0.1758649093904448
sg53
F0.04159802306425041
sg55
F0.004736408566721581
sg56
F0.0012355848434925864
sg57
F0.02182866556836903
sa(dp62
g2
F0.00022763487366264513
sS'.'
p63
F0.00022763487366264513
sg13
F0.00022763487366264513
sg59
F0.0015934441156385158
sg22
F0.003642157978602322
sg60
F0.0009105394946505805
sg61
F0.007739585704529934
sS'^'
p64
F0.0015934441156385158
sg34
F0.05463236967903483
sg35
F0.11791486455725017
sg36
F0.02048713862963806
sg37
F0.07739585704529935
sg38
F0.04757568859549283
sg39
F0.016162076030047802
sg40
F0.015023901661734578
sg41
F0.04871386296380605
sg42
F0.02890962895515593
sg43
F0.00045526974732529026
sg44
F0.04575460960619167
sg45
F0.05235602094240838
sg46
F0.06692465285681766
sg47
F0.1003869792852265
sg48
F0.0006829046209879354
sg49
F0.019804234008650126
sg50
F0.022080582745276578
sg51
F0.0817209196448896
sg52
F0.05554290917368541
sg53
F0.0746642385613476
sg54
F0.0009105394946505805
sg55
F0.004325062599590257
sg56
F0.0006829046209879354
sg57
F0.030275438197131802
sS'z'
p65
F0.00045526974732529026
sa(dp66
g63
F0.0005755395683453237
sg15
F0.0011510791366906475
sg20
F0.004028776978417266
sg22
F0.00028776978417266187
sg23
F0.004316546762589928
sg26
F0.00028776978417266187
sg27
F0.0005755395683453237
sg29
F0.0014388489208633094
sg60
F0.0005755395683453237
sg61
F0.009784172661870504
sg34
F0.06129496402877698
sg35
F0.05151079136690648
sg36
F0.005179856115107914
sg37
F0.15280575539568345
sg38
F0.07366906474820144
sg39
F0.010647482014388488
sg40
F0.014388489208633094
sg41
F0.1033093525179856
sg42
F0.010359712230215827
sg43
F0.0034532374100719426
sg44
F0.05352517985611511
sg45
F0.019568345323741007
sg46
F0.11223021582733812
sg47
F0.048345323741007196
sg48
F0.0031654676258992807
sg49
F0.021007194244604316
sg50
F0.02618705035971223
sg51
F0.050359712230215826
sg52
F0.03798561151079137
sg53
F0.09755395683453237
sg54
F0.00028776978417266187
sg55
F0.002302158273381295
sg56
F0.0005755395683453237
sg57
F0.002589928057553957
sS'~'
p67
F0.014676258992805755
sa(dp68
g9
F0.013449367088607595
sg10
F0.005537974683544304
sg15
F0.0007911392405063291
sg17
F0.0015822784810126582
sg22
F0.0015822784810126582
sg26
F0.00039556962025316455
sg27
F0.00039556962025316455
sg29
F0.005142405063291139
sg60
F0.0007911392405063291
sg61
F0.01740506329113924
sg34
F0.10047468354430379
sg35
F0.04430379746835443
sg36
F0.005142405063291139
sg37
F0.1530854430379747
sg38
F0.020174050632911392
sg39
F0.009098101265822785
sg40
F0.03322784810126582
sg41
F0.09691455696202532
sg42
F0.01740506329113924
sg43
F0.00039556962025316455
sg44
F0.015822784810126583
sg45
F0.026503164556962024
sg46
F0.08425632911392406
sg47
F0.0992879746835443
sg48
F0.0007911392405063291
sg49
F0.009098101265822785
sg50
F0.048259493670886076
sg51
F0.10087025316455696
sg52
F0.028085443037974684
sg53
F0.056962025316455694
sg55
F0.001977848101265823
sg57
F0.0007911392405063291
sa(dp69
g17
F0.0029222676797194622
sg21
F0.0023378141437755697
sg23
F0.009351256575102279
sg26
F0.0005844535359438924
sg27
F0.0023378141437755697
sg61
F0.02162478082992402
sg64
F0.0005844535359438924
sg34
F0.108708357685564
sg35
F0.024547048509643482
sg36
F0.005260081823495032
sg37
F0.179427235534775
sg38
F0.03682057276446522
sg39
F0.008766803039158387
sg40
F0.05026300409117475
sg41
F0.11455289304500292
sg42
F0.006428988895382817
sg44
F0.01928696668614845
sg45
F0.03272939801285798
sg46
F0.03389830508474576
sg47
F0.07188778492109878
sg48
F0.0023378141437755697
sg49
F0.0023378141437755697
sg50
F0.053185271770894216
sg51
F0.06662770309760374
sg52
F0.028053769725306838
sg53
F0.09526592635885447
sg55
F0.006428988895382817
sg57
F0.011689070718877849
sg65
F0.0017533606078316774
sa(dp70
g2
F0.0008841732979664014
sg12
F0.0008841732979664014
sg59
F0.0035366931918656055
sg17
F0.005305039787798408
sg21
F0.0017683465959328027
sg61
F0.027409372236958444
sg64
F0.0035366931918656055
sg34
F0.15649867374005305
sg35
F0.026525198938992044
sg36
F0.011494252873563218
sg37
F0.11052166224580018
sg38
F0.019451812555260833
sg39
F0.007073386383731211
sg40
F0.04332449160035367
sg41
F0.07957559681697612
sg42
F0.010610079575596816
sg44
F0.021220159151193633
sg45
F0.03094606542882405
sg46
F0.05305039787798409
sg47
F0.060123784261715295
sg49
F0.00618921308576481
sg50
F0.06631299734748011
sg51
F0.04774535809018567
sg52
F0.07957559681697612
sg53
F0.10521662245800177
sg55
F0.0017683465959328027
sg56
F0.013262599469496022
sg57
F0.002652519893899204
sg67
F0.0035366931918656055
sa(dp71
g9
F0.002840909090909091
sg59
F0.002840909090909091
sg17
F0.005681818181818182
sg21
F0.0014204545454545455
sg22
F0.007102272727272727
sg61
F0.028409090909090908
sg64
F0.002840909090909091
sg34
F0.14630681818181818
sg35
F0.045454545454545456
sg36
F0.015625
sg37
F0.06676136363636363
sg38
F0.041193181818181816
sg39
F0.0014204545454545455
sg40
F0.032670454545454544
sg41
F0.078125
sg42
F0.018465909090909092
sg44
F0.036931818181818184
sg45
F0.026988636363636364
sg46
F0.08522727272727272
sg47
F0.048295454545454544
sg49
F0.0014204545454545455
sg50
F0.04971590909090909
sg51
F0.041193181818181816
sg52
F0.03551136363636364
sg53
F0.08664772727272728
sg55
F0.03551136363636364
sg57
F0.02130681818181818
sg65
F0.009943181818181818
sg67
F0.024147727272727272
sa(dp72
g2
F0.004338394793926247
sg13
F0.008676789587852495
sg25
F0.006507592190889371
sg61
F0.03036876355748373
sg34
F0.1301518438177874
sg35
F0.028199566160520606
sg36
F0.013015184381778741
sg37
F0.13882863340563992
sg38
F0.015184381778741865
sg40
F0.028199566160520606
sg41
F0.06724511930585683
sg42
F0.0021691973969631237
sg43
F0.0021691973969631237
sg44
F0.03036876355748373
sg45
F0.04772234273318872
sg46
F0.0650759219088937
sg47
F0.07158351409978309
sg50
F0.0368763557483731
sg51
F0.049891540130151846
sg52
F0.07809110629067245
sg53
F0.09978308026030369
sg55
F0.0368763557483731
sg57
F0.004338394793926247
sg67
F0.004338394793926247
sa(dp73
g10
F0.013071895424836602
sg13
F0.006535947712418301
sg22
F0.00980392156862745
sg30
F0.00980392156862745
sg60
F0.0032679738562091504
sg61
F0.0915032679738562
sg64
F0.013071895424836602
sg34
F0.08169934640522876
sg35
F0.0196078431372549
sg37
F0.10457516339869281
sg38
F0.12745098039215685
sg40
F0.013071895424836602
sg41
F0.08823529411764706
sg42
F0.006535947712418301
sg44
F0.016339869281045753
sg45
F0.016339869281045753
sg46
F0.08496732026143791
sg47
F0.07516339869281045
sg49
F0.006535947712418301
sg50
F0.0718954248366013
sg51
F0.016339869281045753
sg52
F0.02287581699346405
sg53
F0.09477124183006536
sg55
F0.006535947712418301
sa(dp74
S'1'
p75
F0.04040404040404041
sg10
F0.010101010101010102
sg12
F0.025252525252525252
sg27
F0.005050505050505051
sg61
F0.07575757575757576
sg64
F0.005050505050505051
sg34
F0.0707070707070707
sg35
F0.025252525252525252
sg36
F0.020202020202020204
sg37
F0.20707070707070707
sg38
F0.020202020202020204
sg39
F0.010101010101010102
sg40
F0.010101010101010102
sg41
F0.030303030303030304
sg44
F0.030303030303030304
sg45
F0.06060606060606061
sg46
F0.04040404040404041
sg47
F0.005050505050505051
sg49
F0.025252525252525252
sg50
F0.09090909090909091
sg51
F0.020202020202020204
sg52
F0.050505050505050504
sg53
F0.08080808080808081
sg55
F0.005050505050505051
sg56
F0.005050505050505051
sg67
F0.030303030303030304
sa(dp76
g8
F0.0070921985815602835
sg75
F0.0070921985815602835
sS'2'
p77
F0.0070921985815602835
sS'5'
p78
F0.05673758865248227
sS'7'
p79
F0.028368794326241134
sg12
F0.014184397163120567
sg15
F0.0070921985815602835
sg19
F0.028368794326241134
sg61
F0.014184397163120567
sg64
F0.06382978723404255
sg34
F0.07092198581560284
sg35
F0.0070921985815602835
sg37
F0.14893617021276595
sg38
F0.03546099290780142
sg40
F0.014184397163120567
sg41
F0.03546099290780142
sg44
F0.0425531914893617
sg45
F0.028368794326241134
sg46
F0.07092198581560284
sg47
F0.04964539007092199
sg50
F0.0425531914893617
sg51
F0.03546099290780142
sg52
F0.014184397163120567
sg53
F0.14893617021276595
sg67
F0.02127659574468085
sa(dp80
g78
F0.00980392156862745
sS'6'
p81
F0.00980392156862745
sg15
F0.0392156862745098
sg19
F0.0196078431372549
sg61
F0.00980392156862745
sg64
F0.00980392156862745
sg34
F0.10784313725490197
sg35
F0.00980392156862745
sg37
F0.19607843137254902
sg38
F0.0784313725490196
sg41
F0.0196078431372549
sg42
F0.00980392156862745
sg44
F0.0196078431372549
sg45
F0.06862745098039216
sg46
F0.08823529411764706
sg47
F0.029411764705882353
sg49
F0.029411764705882353
sg50
F0.0196078431372549
sg51
F0.10784313725490197
sg52
F0.0196078431372549
sg53
F0.00980392156862745
sg67
F0.08823529411764706
sa(dp82
g35
F0.028169014084507043
sg36
F0.014084507042253521
sg37
F0.04225352112676056
sg38
F0.056338028169014086
sg15
F0.028169014084507043
sg41
F0.07042253521126761
sg42
F0.04225352112676056
sg44
F0.07042253521126761
sg46
F0.16901408450704225
sg47
F0.08450704225352113
sg51
F0.04225352112676056
sg52
F0.04225352112676056
sg53
F0.04225352112676056
sg55
F0.014084507042253521
sg60
F0.08450704225352113
sg27
F0.056338028169014086
sg61
F0.014084507042253521
sg64
F0.09859154929577464
sa(dp83
g34
F0.1
sg46
F0.06666666666666667
sg35
F0.03333333333333333
sg37
F0.18333333333333332
sg38
F0.05
sg43
F0.15
sg51
F0.016666666666666666
sg22
F0.06666666666666667
sg49
F0.016666666666666666
sg50
F0.016666666666666666
sg27
F0.03333333333333333
sg52
F0.06666666666666667
sg53
F0.06666666666666667
sg67
F0.11666666666666667
sg64
F0.016666666666666666
sa(dp84
g34
F0.06976744186046512
sg46
F0.023255813953488372
sg37
F0.20930232558139536
sg38
F0.023255813953488372
sg41
F0.046511627906976744
sg42
F0.023255813953488372
sg8
F0.023255813953488372
sg22
F0.046511627906976744
sg51
F0.09302325581395349
sg28
F0.09302325581395349
sg53
F0.046511627906976744
sg61
F0.09302325581395349
sg64
F0.20930232558139536
sa(dp85
g34
F0.024390243902439025
sg37
F0.07317073170731707
sg38
F0.21951219512195122
sg40
F0.024390243902439025
sg41
F0.024390243902439025
sg45
F0.024390243902439025
sg46
F0.024390243902439025
sg23
F0.0975609756097561
sg51
F0.024390243902439025
sg52
F0.07317073170731707
sg53
F0.024390243902439025
sg60
F0.0975609756097561
sg28
F0.04878048780487805
sg67
F0.21951219512195122
sa(dp86
g34
F0.09090909090909091
sg37
F0.045454545454545456
sg14
F0.18181818181818182
sg40
F0.045454545454545456
sg41
F0.045454545454545456
sg45
F0.18181818181818182
sg23
F0.09090909090909091
sg50
F0.09090909090909091
sg51
F0.045454545454545456
sg47
F0.09090909090909091
sg64
F0.09090909090909091
sa(dp87
g35
F0.13333333333333333
sg14
F0.13333333333333333
sg39
F0.06666666666666667
sg41
F0.3333333333333333
sg38
F0.06666666666666667
sg50
F0.06666666666666667
sg52
F0.06666666666666667
sg67
F0.13333333333333333
sa(dp88
g39
F0.4
sg41
F0.2
sg45
F0.1
sg50
F0.1
sg51
F0.1
sg52
F0.1
sa(dp89
g34
F0.7777777777777778
sg52
F0.1111111111111111
sg64
F0.1111111111111111
sa(dp90
g49
F0.1111111111111111
sg47
F0.1111111111111111
sg8
F0.1111111111111111
sg53
F0.4444444444444444
sg64
F0.2222222222222222
sa(dp91
g42
F0.25
sg39
F0.25
sg67
F0.5
sa(dp92
g37
F0.5
sg61
F0.5
sa(dp93
g37
F1.0
sa(dp94
g47
F1.0
sa(dp95
g38
F1.0
sa(dp96
S'3'
p97
F1.0
sa.