(dp0
S'#'
p1
(dp2
S'i'
p3
F0.0002956247536460386
sS'r'
p4
F0.00039416633819471815
sS'e'
p5
F0.0016259361450532124
sS'o'
p6
F0.0010839574300354749
ssS'%'
p7
(dp8
S's'
p9
F4.927079227433977e-05
ssS'&'
p10
(dp11
S'a'
p12
F0.0016259361450532124
ssS'+'
p13
(dp14
S't'
p15
F4.927079227433977e-05
ssS'-'
p16
(dp17
S'h'
p18
F4.927079227433977e-05
sg15
F4.927079227433977e-05
ssS'1'
p19
(dp20
S'5'
p21
F0.00039416633819471815
sS'6'
p22
F4.927079227433977e-05
ssS'2'
p23
(dp24
g21
F4.927079227433977e-05
ssS';'
p25
(dp26
S'c'
p27
F0.0015273945605045328
ssS'A'
p28
(dp29
S'C'
p30
F0.0002956247536460386
sS'd'
p31
F0.0008868742609381159
sS'l'
p32
F0.0001478123768230193
sS'N'
p33
F0.0006897910918407568
sS'p'
p34
F4.927079227433977e-05
sS'u'
p35
F9.854158454867954e-05
sg15
F0.0005912495072920772
sS'n'
p36
F0.005074891604256997
ssS'@'
p37
(dp38
g12
F0.0011332282223098147
sg6
F4.927079227433977e-05
sg27
F0.000640520299566417
sS'b'
p39
F0.00019708316909735908
sg5
F0.000640520299566417
sg31
F0.0002956247536460386
sg18
F9.854158454867954e-05
sS'm'
p40
F9.854158454867954e-05
sg32
F0.0002956247536460386
sS'O'
p41
F0.0001478123768230193
sg36
F0.0002956247536460386
sS'q'
p42
F0.00019708316909735908
sg34
F0.0002956247536460386
sg9
F0.0013303113914071739
sS'R'
p43
F0.0007390618841150966
sS'T'
p44
F9.854158454867954e-05
sS'W'
p45
F0.0001478123768230193
sS'v'
p46
F0.00044343713046905795
sS'E'
p47
F0.0005419787150177374
sg33
F9.854158454867954e-05
sg15
F0.0005912495072920772
ssg30
(dp48
g12
F4.927079227433977e-05
sg5
F0.0004927079227433977
sg18
F9.854158454867954e-05
sS'K'
p49
F0.0002956247536460386
sg32
F0.0001478123768230193
sg6
F9.854158454867954e-05
sg4
F0.0003448955459203784
sg35
F0.0002956247536460386
sg41
F4.927079227433977e-05
ssS'B'
p50
(dp51
g12
F0.00019708316909735908
sg28
F0.0002956247536460386
sg5
F0.0001478123768230193
sg3
F4.927079227433977e-05
sg6
F0.00211864406779661
sg4
F0.000640520299566417
sg41
F4.927079227433977e-05
ssg47
(dp52
S'G'
p53
F0.00019708316909735908
sg41
F9.854158454867954e-05
sg44
F4.927079227433977e-05
sS'X'
p54
F0.0002956247536460386
sS'_'
p55
F0.0002956247536460386
sg15
F0.0005419787150177374
ssS'D'
p56
(dp57
g3
F0.0001478123768230193
sg12
F9.854158454867954e-05
sg35
F0.000640520299566417
sg5
F9.854158454867954e-05
sg6
F9.854158454867954e-05
ssg53
(dp58
g47
F9.854158454867954e-05
sS'I'
p59
F9.854158454867954e-05
sg32
F0.0001478123768230193
sg41
F0.00019708316909735908
sg4
F9.854158454867954e-05
sg5
F0.0005419787150177374
sg43
F0.0004927079227433977
ssg59
(dp60
g12
F4.927079227433977e-05
sg30
F4.927079227433977e-05
sg39
F4.927079227433977e-05
sg47
F4.927079227433977e-05
sg59
F0.0002956247536460386
sS'L'
p61
F0.0002956247536460386
sg54
F9.854158454867954e-05
ssS'H'
p62
(dp63
g12
F0.0004927079227433977
sg5
F0.0008868742609381159
sg3
F0.0006897910918407568
sg32
F4.927079227433977e-05
sg6
F0.00044343713046905795
sg35
F0.00039416633819471815
ssg49
(dp64
g12
F9.854158454867954e-05
sg53
F0.0002956247536460386
ssS'M'
p65
(dp66
g28
F0.0006897910918407568
sg12
F0.0002463539613716989
sg5
F4.927079227433977e-05
sg3
F9.854158454867954e-05
sg6
F0.00039416633819471815
ssg61
(dp67
g12
F4.927079227433977e-05
sg47
F0.0002956247536460386
sg3
F4.927079227433977e-05
sg6
F0.0001478123768230193
sg35
F0.0001478123768230193
sg46
F4.927079227433977e-05
sg5
F9.854158454867954e-05
ssg41
(dp68
S'k'
p69
F4.927079227433977e-05
sg65
F0.0006897910918407568
sg36
F0.0001478123768230193
sS'S'
p70
F4.927079227433977e-05
sg43
F0.0002956247536460386
sS'U'
p71
F0.0002956247536460386
sg15
F0.003448955459203784
ssg33
(dp72
g12
F0.0031533307055577452
sg5
F0.0008376034686637761
sg56
F0.0002956247536460386
sg3
F4.927079227433977e-05
sg6
F0.0008868742609381159
sg55
F0.0006897910918407568
ssS'Q'
p73
(dp74
g35
F0.0016259361450532124
ssS'P'
p75
(dp76
g3
F0.00019708316909735908
sg12
F0.0001478123768230193
sg4
F0.0001478123768230193
sg32
F9.854158454867954e-05
sg6
F0.0022664564446196293
ssg70
(dp77
g12
F4.927079227433977e-05
sg27
F4.927079227433977e-05
sg5
F0.0001478123768230193
sg3
F9.854158454867954e-05
sg6
F4.927079227433977e-05
sg70
F4.927079227433977e-05
sg35
F4.927079227433977e-05
sg15
F9.854158454867954e-05
ssg43
(dp78
g5
F4.927079227433977e-05
sg53
F9.854158454867954e-05
sg59
F0.0002463539613716989
sg6
F4.927079227433977e-05
sg35
F9.854158454867954e-05
sg41
F0.0009854158454867955
sg47
F0.00019708316909735908
ssg71
(dp79
g4
F4.927079227433977e-05
sg33
F0.0002956247536460386
sg36
F9.854158454867954e-05
ssg44
(dp80
g47
F0.0002956247536460386
sg59
F0.0003448955459203784
sg3
F0.0007390618841150966
sg43
F4.927079227433977e-05
sg35
F0.0001478123768230193
sg5
F4.927079227433977e-05
ssg45
(dp81
g3
F0.00019708316909735908
sg12
F0.00019708316909735908
sg4
F0.0001478123768230193
sg5
F0.0005912495072920772
sg32
F0.0002956247536460386
ssS'V'
p82
(dp83
g3
F4.927079227433977e-05
sg12
F9.854158454867954e-05
sg6
F0.0001478123768230193
sg36
F4.927079227433977e-05
ssg54
(dp84
g44
F0.0002956247536460386
sg32
F0.00019708316909735908
ssS'['
p85
(dp86
g42
F4.927079227433977e-05
ssS']'
p87
(dp88
g5
F0.0007390618841150966
ssg55
(dp89
g19
F0.00044343713046905795
sg23
F4.927079227433977e-05
sS'7'
p90
F0.00019708316909735908
sg30
F4.927079227433977e-05
sg50
F0.0002956247536460386
sg53
F4.927079227433977e-05
sg61
F4.927079227433977e-05
sg41
F0.0001478123768230193
sg33
F9.854158454867954e-05
sg43
F4.927079227433977e-05
sg44
F0.0005419787150177374
sg45
F0.0001478123768230193
sg54
F0.00019708316909735908
sg12
F0.00019708316909735908
sg27
F0.0007883326763894363
sg39
F0.00019708316909735908
sg5
F0.0015273945605045328
sg31
F0.0007390618841150966
sS'f'
p91
F0.0015766653527788726
sg18
F0.0005912495072920772
sg40
F0.0001478123768230193
sg32
F0.0005912495072920772
sg6
F0.00044343713046905795
sg36
F0.00039416633819471815
sg42
F0.00019708316909735908
sg34
F0.0004927079227433977
sg9
F0.0006897910918407568
sg4
F4.927079227433977e-05
sg35
F0.0012317698068584943
sg15
F0.00039416633819471815
sg46
F0.0002463539613716989
sS'x'
p92
F0.0004927079227433977
ssS'^'
p93
(dp94
g16
F0.0001478123768230193
sg6
F0.0003448955459203784
sS'~'
p95
F0.0020201024832479306
ssg12
(dp96
g1
F0.0001478123768230193
sS'.'
p97
F9.854158454867954e-05
sg55
F0.0009854158454867955
sg93
F0.00044343713046905795
sg27
F0.007193535672053606
sg39
F0.002808435159637367
sg31
F0.0063066614111154905
sS'g'
p98
F0.0014288529759558534
sg91
F0.0007390618841150966
sg3
F0.0003448955459203784
sg18
F0.0002956247536460386
sg69
F0.00039416633819471815
sg40
F0.0064052029956641705
sg32
F0.007686243594797004
sg6
F4.927079227433977e-05
sg36
F0.010297595585337013
sg34
F0.0022664564446196293
sg9
F0.0016259361450532124
sg4
F0.006799369333858889
sg35
F0.008129680725266063
sg15
F0.012514781237682302
sS'w'
p99
F0.00019708316909735908
sg46
F0.00211864406779661
sg92
F0.0008376034686637761
sS'z'
p100
F9.854158454867954e-05
sg95
F0.0001478123768230193
ssg27
(dp101
g12
F0.005715411903823414
sg27
F0.005764682696097753
sg5
F0.009016554986204179
sg3
F0.010051241623965314
sg18
F0.0020201024832479306
sg69
F0.00019708316909735908
sg32
F0.0003448955459203784
sg6
F0.003646038628301143
sg4
F0.0015273945605045328
sg35
F0.0084253054789121
sg15
F0.0035474970437524636
sg46
F0.00019708316909735908
ssg39
(dp102
g12
F0.0016752069373275522
sg39
F0.00044343713046905795
sg5
F0.005666141111549073
sg91
F4.927079227433977e-05
sg3
F0.0029069767441860465
sg40
F0.0001478123768230193
sg32
F0.0004927079227433977
sg6
F0.00660228616476153
sg9
F0.0002463539613716989
sg4
F0.0005912495072920772
sg35
F0.0009361450532124557
sg15
F9.854158454867954e-05
sg25
F4.927079227433977e-05
ssg5
(dp103
g55
F0.003596767836026803
sg93
F0.0006897910918407568
sg12
F0.0032026014978320852
sg27
F0.005912495072920773
sg39
F0.0010839574300354749
sg5
F4.927079227433977e-05
sg31
F0.004188017343318881
sg98
F0.0020693732755222706
sg91
F0.004729996058336618
sg3
F0.0007883326763894363
sg18
F0.0004927079227433977
sg69
F4.927079227433977e-05
sg40
F0.009607804493496255
sg32
F0.0024635396137169885
sg6
F0.005616870319274734
sg36
F0.01059322033898305
sg42
F4.927079227433977e-05
sg34
F0.0013303113914071739
sg9
F0.005370516357903035
sg4
F0.01887071344107213
sg35
F0.0035474970437524636
sg15
F0.002808435159637367
sg46
F0.0001478123768230193
sS'y'
p104
F4.927079227433977e-05
sg92
F0.004976350019708317
ssg31
(dp105
g12
F0.003892392589672842
sg27
F0.0005419787150177374
sg5
F0.017688214426487978
sg31
F0.0023157272368939693
sg91
F0.0001478123768230193
sg3
F0.009804887662593615
sg18
F0.0015766653527788726
sg40
F9.854158454867954e-05
sg70
F4.927079227433977e-05
sg6
F0.0024635396137169885
sg36
F9.854158454867954e-05
sg42
F0.0001478123768230193
sg9
F4.927079227433977e-05
sS'3'
p106
F4.927079227433977e-05
sg4
F0.0001478123768230193
sg35
F0.011283011430823808
sg97
F4.927079227433977e-05
sg55
F0.0002956247536460386
sg32
F0.0007390618841150966
ssg98
(dp107
g12
F0.0014781237682301932
sg5
F0.002414268821442649
sg31
F0.0002463539613716989
sg3
F0.0009361450532124557
sg32
F9.854158454867954e-05
sg6
F0.00423728813559322
sg36
F0.0021679148600709497
sg4
F0.0005419787150177374
sg35
F0.0001478123768230193
sg15
F0.0005912495072920772
ssg91
(dp108
g12
F0.0027098935750886873
sg27
F0.0008868742609381159
sg5
F0.003892392589672842
sg31
F9.854158454867954e-05
sg91
F0.001724477729601892
sg3
F0.005764682696097753
sg69
F4.927079227433977e-05
sg32
F0.0001478123768230193
sg6
F0.006158849034292472
sg34
F9.854158454867954e-05
sg4
F0.0008376034686637761
sg35
F0.006355932203389831
sg15
F0.00428655892786756
sg99
F4.927079227433977e-05
sg104
F9.854158454867954e-05
ssg3
(dp109
g1
F4.927079227433977e-05
sg55
F0.0002463539613716989
sg12
F0.006750098541584548
sg27
F0.007784785179345684
sg39
F0.0005912495072920772
sg5
F0.006060307449743792
sg31
F0.0036953094205754828
sg98
F0.0013303113914071739
sg91
F0.005173433188805676
sg3
F0.0022664564446196293
sg18
F0.000640520299566417
sg40
F0.0020201024832479306
sg32
F0.0039909341742215216
sg6
F0.004089475758770201
sg36
F0.0048778084351596375
sg42
F0.0002956247536460386
sg34
F0.0006897910918407568
sg9
F0.008129680725266063
sg4
F0.0022664564446196293
sg35
F0.0018722901064249114
sg15
F0.008819471817106819
sg46
F0.0001478123768230193
sg92
F0.000640520299566417
sg100
F0.0004927079227433977
ssg18
(dp110
g12
F0.003251872290106425
sg5
F0.006996452502956247
sg3
F0.0020693732755222706
sg40
F9.854158454867954e-05
sg6
F0.006750098541584548
sg4
F0.0005912495072920772
sg35
F0.0022664564446196293
sg15
F4.927079227433977e-05
sg104
F0.0001478123768230193
sg55
F9.854158454867954e-05
ssg69
(dp111
g12
F4.927079227433977e-05
sg4
F9.854158454867954e-05
sg5
F0.000640520299566417
sg6
F0.000640520299566417
ssg40
(dp112
g12
F0.006700827749310209
sg27
F0.0002956247536460386
sg39
F0.000640520299566417
sg5
F0.003005518328734726
sg31
F0.0006897910918407568
sg75
F0.0001478123768230193
sg91
F0.00019708316909735908
sg3
F0.007883326763894364
sg40
F0.00019708316909735908
sg6
F0.0064052029956641705
sg36
F0.0005419787150177374
sg34
F0.0027591643673630273
sg9
F0.000640520299566417
sg35
F0.0027098935750886873
sg41
F0.00019708316909735908
sg104
F4.927079227433977e-05
sg33
F0.0007390618841150966
sg93
F4.927079227433977e-05
sg55
F0.0027591643673630273
sg15
F4.927079227433977e-05
ssg32
(dp113
g12
F0.00872093023255814
sg27
F0.00019708316909735908
sg5
F0.006355932203389831
sg31
F0.003596767836026803
sg91
F0.0001478123768230193
sg3
F0.006700827749310209
sg40
F0.00019708316909735908
sg32
F0.002364998029168309
sg6
F0.0048778084351596375
sg34
F0.0005912495072920772
sg35
F0.001281040599132834
sg15
F0.0015766653527788726
sg46
F9.854158454867954e-05
sg104
F4.927079227433977e-05
sg92
F4.927079227433977e-05
sg55
F4.927079227433977e-05
ssg6
(dp114
g1
F0.000640520299566417
sg54
F0.00039416633819471815
sg55
F0.0004927079227433977
sg27
F0.005074891604256997
sg39
F0.0009854158454867955
sg5
F0.005222703981080015
sg31
F0.00877020102483248
sg98
F0.00039416633819471815
sg91
F0.0026113519905400077
sg18
F4.927079227433977e-05
sg69
F0.00044343713046905795
sg40
F0.0032026014978320852
sg32
F0.005469057942451715
sg36
F0.016801340165549863
sg42
F0.0002463539613716989
sg34
F0.0009854158454867955
sg9
F0.00645447378793851
sg4
F0.016554986204178165
sg35
F0.001281040599132834
sg15
F0.0063066614111154905
sg46
F0.0006897910918407568
sg104
F0.000640520299566417
sg92
F0.0023157272368939693
ssg36
(dp115
g12
F0.004729996058336618
sg27
F0.0022171856523452898
sg39
F4.927079227433977e-05
sg5
F0.013598738667717778
sg31
F0.004828537642885298
sg98
F0.0027591643673630273
sg91
F0.0008868742609381159
sg3
F0.006355932203389831
sg69
F4.927079227433977e-05
sg6
F0.012416239653133623
sg36
F0.009361450532124557
sg9
F0.0010839574300354749
sg4
F0.0001478123768230193
sg35
F0.0010839574300354749
sg15
F0.007636972802522664
sg46
F9.854158454867954e-05
sg92
F0.0002956247536460386
sg55
F0.0004927079227433977
ssg42
(dp116
g36
F0.0001478123768230193
sg35
F0.005518328734726055
sg31
F4.927079227433977e-05
sg93
F0.00019708316909735908
ssg34
(dp117
g12
F0.006553015372487189
sg5
F0.002857705951911707
sg31
F9.854158454867954e-05
sg3
F0.0022171856523452898
sg18
F0.0005912495072920772
sg40
F4.927079227433977e-05
sg32
F0.0015273945605045328
sg6
F0.006355932203389831
sg34
F0.00044343713046905795
sg9
F4.927079227433977e-05
sg4
F0.000640520299566417
sg35
F0.0011332282223098147
sg15
F0.000640520299566417
sg92
F9.854158454867954e-05
sg25
F0.0016259361450532124
sg93
F0.0001478123768230193
sg95
F0.0002463539613716989
ssg9
(dp118
g12
F0.0023157272368939693
sg27
F0.0004927079227433977
sg5
F0.0020201024832479306
sg3
F0.0035474970437524636
sg40
F4.927079227433977e-05
sg32
F0.0014288529759558534
sg6
F0.0010346866377611353
sg34
F0.0003448955459203784
sg9
F0.0010346866377611353
sg35
F0.006355932203389831
sg15
F0.004828537642885298
sg104
F9.854158454867954e-05
sg55
F0.0009854158454867955
ssg4
(dp119
g54
F4.927079227433977e-05
sg55
F0.0002956247536460386
sg12
F0.011923531730390225
sg27
F0.0016752069373275522
sg39
F0.0011824990145841545
sg5
F0.014485612928655894
sg31
F0.001970831690973591
sg98
F0.0005419787150177374
sg91
F0.00019708316909735908
sg3
F0.004631454473787939
sg69
F4.927079227433977e-05
sg40
F0.0015273945605045328
sg32
F4.927079227433977e-05
sg6
F0.00423728813559322
sg36
F0.0008376034686637761
sg34
F0.0004927079227433977
sg9
F0.0009361450532124557
sg4
F0.0008376034686637761
sg35
F0.0020201024832479306
sg15
F0.006158849034292472
sg46
F9.854158454867954e-05
sg104
F0.00019708316909735908
ssg35
(dp120
g1
F4.927079227433977e-05
sg93
F0.0007883326763894363
sg12
F0.005271974773354356
sg27
F0.01064249113125739
sg39
F0.0016752069373275522
sg5
F0.004828537642885298
sg31
F0.004680725266062278
sg98
F0.0004927079227433977
sg91
F0.0018230193141505716
sg3
F0.005469057942451715
sg18
F4.927079227433977e-05
sg40
F0.0043358297201418995
sg32
F0.0026113519905400077
sg6
F0.0068486401261332285
sg36
F0.005321245565628695
sg34
F0.0002956247536460386
sg9
F0.0032026014978320852
sg4
F0.003301143082380765
sg35
F0.0018722901064249114
sg15
F0.003005518328734726
sg92
F0.004040204966495861
sg95
F0.0031040599132834057
ssg15
(dp121
g12
F0.011184469846275129
sg5
F0.011184469846275129
sg91
F4.927079227433977e-05
sg3
F0.004188017343318881
sg18
F0.008277493102089082
sg6
F0.011283011430823808
sg4
F0.003744580212849823
sg35
F0.0044343713046905795
sg15
F0.00428655892786756
sg46
F0.0001478123768230193
sg25
F9.854158454867954e-05
sg55
F0.0015273945605045328
ssg99
(dp122
g12
F0.00019708316909735908
sg4
F9.854158454867954e-05
sg5
F4.927079227433977e-05
ssg46
(dp123
g12
F0.001281040599132834
sg50
F4.927079227433977e-05
sg5
F0.0010346866377611353
sg3
F0.0015766653527788726
sg32
F4.927079227433977e-05
sg6
F0.00044343713046905795
sg36
F4.927079227433977e-05
sg9
F4.927079227433977e-05
sg35
F9.854158454867954e-05
sg55
F0.00044343713046905795
sg93
F0.00019708316909735908
ssg104
(dp124
g27
F4.927079227433977e-05
sg5
F0.0002956247536460386
sg31
F9.854158454867954e-05
sg91
F4.927079227433977e-05
sg4
F4.927079227433977e-05
sg35
F9.854158454867954e-05
ssg92
(dp125
g12
F0.0004927079227433977
sg27
F0.0005419787150177374
sg5
F0.0007390618841150966
sg3
F0.0009854158454867955
sg6
F0.0001478123768230193
sg42
F4.927079227433977e-05
sg34
F0.0005912495072920772
sg15
F9.854158454867954e-05
sg46
F0.0011332282223098147
sg92
F0.0005419787150177374
sg55
F4.927079227433977e-05
ssg100
(dp126
g3
F9.854158454867954e-05
sg32
F0.0001478123768230193
sg6
F0.0003448955459203784
ssg95
(dp127
g40
F4.927079227433977e-05
sg31
F0.0004927079227433977
ss.